Interrupt Vectors
    00000 940C 0064 JMP	__start|__text_start
    00016 940C 03CE JMP	_uart0_rx_isr

Program Code (text area)
FILE: <library>
__start|__text_start:
    00064 E5CF      LDI	R28,0x5F
    00065 E0D4      LDI	R29,4
    00066 BFCD      OUT	0x3D,R28
    00067 BFDE      OUT	0x3E,R29
    00068 51CE      SUBI	R28,0x1E
    00069 40D0      SBCI	R29,0
    0006A EA0A      LDI	R16,0xAA
    0006B 8308      ST	Y,R16
    0006C 2400      CLR	R0
    0006D EDE3      LDI	R30,0xD3
    0006E E0F0      LDI	R31,0
    0006F E011      LDI	R17,1
    00070 32E3      CPI	R30,0x23
    00071 07F1      CPC	R31,R17
    00072 F011      BEQ	0x0075
    00073 9201      ST	Z+,R0
    00074 CFFB      RJMP	0x0070
    00075 8300      ST	Z,R16
    00076 E5E4      LDI	R30,0x54
    00077 E0F0      LDI	R31,0
    00078 E6A0      LDI	R26,0x60
    00079 E0B0      LDI	R27,0
    0007A E010      LDI	R17,0
    0007B E000      LDI	R16,0
    0007C BF0B      OUT	0x3B,R16
    0007D 3CE7      CPI	R30,0xC7
    0007E 07F1      CPC	R31,R17
    0007F F021      BEQ	0x0084
    00080 95C8      LPM
    00081 9631      ADIW	R30,1
    00082 920D      ST	X+,R0
    00083 CFF9      RJMP	0x007D
    00084 940E 017C CALL	_main
_exit:
    00086 CFFF      RJMP	_exit
_delay_us:
  t                    --> R16
    00087 E002      LDI	R16,2
    00088 950A      DEC	R16
    00089 9508      RET
_delay_nus:
  t                    --> R20
    0008A 934A      ST	-Y,R20
    0008B 935A      ST	-Y,R21
    0008C 01A8      MOVW	R20,R16
    0008D C001      RJMP	0x008F
    0008E DFF8      RCALL	_delay_us
    0008F 011A      MOVW	R2,R20
    00090 5041      SUBI	R20,1
    00091 4050      SBCI	R21,0
    00092 2022      TST	R2
    00093 F7D1      BNE	0x008E
    00094 2033      TST	R3
    00095 F7C1      BNE	0x008E
    00096 9159      LD	R21,Y+
    00097 9149      LD	R20,Y+
    00098 9508      RET
_delay_ms:
    00099 EF04      LDI	R16,0xF4
    0009A E011      LDI	R17,1
    0009B CFEE      RJMP	_delay_nus
_delay_nms:
  t                    --> R20
    0009C 934A      ST	-Y,R20
    0009D 935A      ST	-Y,R21
    0009E 01A8      MOVW	R20,R16
    0009F C001      RJMP	0x00A1
    000A0 DFF8      RCALL	_delay_ms
    000A1 011A      MOVW	R2,R20
    000A2 5041      SUBI	R20,1
    000A3 4050      SBCI	R21,0
    000A4 2022      TST	R2
    000A5 F7D1      BNE	0x00A0
    000A6 2033      TST	R3
    000A7 F7C1      BNE	0x00A0
    000A8 9159      LD	R21,Y+
    000A9 9149      LD	R20,Y+
    000AA 9508      RET
_uart0_init:
    000AB 2422      CLR	R2
    000AC B82A      OUT	0x0A,R2
    000AD B82B      OUT	0x0B,R2
    000AE E886      LDI	R24,0x86
    000AF BD80      OUT	0x20,R24
    000B0 E383      LDI	R24,0x33
    000B1 B989      OUT	0x09,R24
    000B2 BC20      OUT	0x20,R2
    000B3 E988      LDI	R24,0x98
    000B4 B98A      OUT	0x0A,R24
    000B5 9508      RET
_send_data:
  back                 --> R16
    000B6 9B5D      SBIS	0x0B,5
    000B7 CFFE      RJMP	_send_data
    000B8 B90C      OUT	0x0C,R16
    000B9 9508      RET
_LCDPort_Init:
    000BA 2422      CLR	R2
    000BB BA28      OUT	0x18,R2
    000BC EF8F      LDI	R24,0xFF
    000BD BB87      OUT	0x17,R24
    000BE B382      IN	R24,0x12
    000BF 788F      ANDI	R24,0x8F
    000C0 BB82      OUT	0x12,R24
    000C1 B381      IN	R24,0x11
    000C2 6780      ORI	R24,0x70
    000C3 BB81      OUT	0x11,R24
    000C4 9508      RET
_Write_Com:
  LCD_Com              --> R20
    000C5 934A      ST	-Y,R20
    000C6 2F40      MOV	R20,R16
    000C7 9895      CBI	0x12,5
    000C8 9894      CBI	0x12,4
    000C9 9896      CBI	0x12,6
    000CA B388      IN	R24,0x18
    000CB 708F      ANDI	R24,0xF
    000CC BB88      OUT	0x18,R24
    000CD 2F84      MOV	R24,R20
    000CE 7F80      ANDI	R24,0xF0
    000CF B228      IN	R2,0x18
    000D0 2A28      OR	R2,R24
    000D1 BA28      OUT	0x18,R2
    000D2 9A96      SBI	0x12,6
    000D3 9896      CBI	0x12,6
    000D4 B388      IN	R24,0x18
    000D5 708F      ANDI	R24,0xF
    000D6 BB88      OUT	0x18,R24
    000D7 2F84      MOV	R24,R20
    000D8 708F      ANDI	R24,0xF
    000D9 9582      SWAP	R24
    000DA B228      IN	R2,0x18
    000DB 2A28      OR	R2,R24
    000DC BA28      OUT	0x18,R2
    000DD E00A      LDI	R16,0xA
    000DE E010      LDI	R17,0
    000DF 940E 008A CALL	_delay_nus
    000E1 9A96      SBI	0x12,6
    000E2 9896      CBI	0x12,6
    000E3 E005      LDI	R16,5
    000E4 E010      LDI	R17,0
    000E5 940E 009C CALL	_delay_nms
    000E7 9149      LD	R20,Y+
    000E8 9508      RET
_Write_Data_Byte:
  LCD_Data             --> R20
    000E9 934A      ST	-Y,R20
    000EA 2F40      MOV	R20,R16
    000EB 9895      CBI	0x12,5
    000EC 9A94      SBI	0x12,4
    000ED 9896      CBI	0x12,6
    000EE B388      IN	R24,0x18
    000EF 708F      ANDI	R24,0xF
    000F0 BB88      OUT	0x18,R24
    000F1 2F84      MOV	R24,R20
    000F2 7F80      ANDI	R24,0xF0
    000F3 B228      IN	R2,0x18
    000F4 2A28      OR	R2,R24
    000F5 BA28      OUT	0x18,R2
    000F6 9A96      SBI	0x12,6
    000F7 9896      CBI	0x12,6
    000F8 B388      IN	R24,0x18
    000F9 708F      ANDI	R24,0xF
    000FA BB88      OUT	0x18,R24
    000FB 2F84      MOV	R24,R20
    000FC 708F      ANDI	R24,0xF
    000FD 9582      SWAP	R24
    000FE B228      IN	R2,0x18
    000FF 2A28      OR	R2,R24
    00100 BA28      OUT	0x18,R2
    00101 9A96      SBI	0x12,6
    00102 9896      CBI	0x12,6
    00103 E005      LDI	R16,5
    00104 E010      LDI	R17,0
    00105 940E 009C CALL	_delay_nms
    00107 9149      LD	R20,Y+
    00108 9508      RET
_ScanKey:
  ret                  --> R20
    00109 934A      ST	-Y,R20
    0010A EF4F      LDI	R20,0xFF
    0010B E005      LDI	R16,5
    0010C E010      LDI	R17,0
    0010D 940E 009C CALL	_delay_nms
    0010F 9998      SBIC	0x13,0
    00110 C003      RJMP	0x0114
    00111 E041      LDI	R20,1
    00112 9B98      SBIS	0x13,0
    00113 CFFE      RJMP	0x0112
    00114 9999      SBIC	0x13,1
    00115 C003      RJMP	0x0119
    00116 E042      LDI	R20,2
    00117 9B99      SBIS	0x13,1
    00118 CFFE      RJMP	0x0117
    00119 999A      SBIC	0x13,2
    0011A C003      RJMP	0x011E
    0011B E043      LDI	R20,3
    0011C 9B9A      SBIS	0x13,2
    0011D CFFE      RJMP	0x011C
    0011E 999B      SBIC	0x13,3
    0011F C003      RJMP	0x0123
    00120 E044      LDI	R20,4
    00121 9B9B      SBIS	0x13,3
    00122 CFFE      RJMP	0x0121
    00123 2F04      MOV	R16,R20
    00124 9149      LD	R20,Y+
    00125 9508      RET
_LCD_Init:
    00126 E906      LDI	R16,0x96
    00127 E010      LDI	R17,0
    00128 940E 009C CALL	_delay_nms
    0012A E00F      LDI	R16,0xF
    0012B E010      LDI	R17,0
    0012C 940E 009C CALL	_delay_nms
    0012E E002      LDI	R16,2
    0012F DF95      RCALL	_Write_Com
    00130 E00F      LDI	R16,0xF
    00131 E010      LDI	R17,0
    00132 940E 009C CALL	_delay_nms
    00134 E208      LDI	R16,0x28
    00135 DF8F      RCALL	_Write_Com
    00136 E00F      LDI	R16,0xF
    00137 E010      LDI	R17,0
    00138 940E 009C CALL	_delay_nms
    0013A E006      LDI	R16,6
    0013B DF89      RCALL	_Write_Com
    0013C E00F      LDI	R16,0xF
    0013D E010      LDI	R17,0
    0013E 940E 009C CALL	_delay_nms
    00140 E00C      LDI	R16,0xC
    00141 DF83      RCALL	_Write_Com
    00142 E00F      LDI	R16,0xF
    00143 E010      LDI	R17,0
    00144 940E 009C CALL	_delay_nms
    00146 E001      LDI	R16,1
    00147 DF7D      RCALL	_Write_Com
    00148 E00F      LDI	R16,0xF
    00149 E010      LDI	R17,0
    0014A 940C 009C JMP	_delay_nms
_Write_Place_xy:
  address              --> R20
  y                    --> R10
  x                    --> R22
    0014C 940E 05F9 CALL	push_xgsetF00C
    0014E 2EA2      MOV	R10,R18
    0014F 2F60      MOV	R22,R16
    00150 20AA      TST	R10
    00151 F419      BNE	0x0155
    00152 2F46      MOV	R20,R22
    00153 5840      SUBI	R20,0x80
    00154 C002      RJMP	0x0157
    00155 2F46      MOV	R20,R22
    00156 5440      SUBI	R20,0x40
    00157 2F04      MOV	R16,R20
    00158 DF6C      RCALL	_Write_Com
    00159 940C 0600 JMP	pop_xgsetF00C
_Write_Data_String:
  Length               --> R12
  i                    --> R10
  data                 --> R20
  y                    --> R12
  x                    --> R10
    0015B 940E 0607 CALL	push_xgset303C
    0015D 2EC2      MOV	R12,R18
    0015E 2EA0      MOV	R10,R16
    0015F 814E      LDD	R20,Y+6
    00160 815F      LDD	R21,Y+7
    00161 2D2C      MOV	R18,R12
    00162 2D0A      MOV	R16,R10
    00163 DFE8      RCALL	_Write_Place_xy
    00164 E001      LDI	R16,1
    00165 E010      LDI	R17,0
    00166 940E 009C CALL	_delay_nms
    00168 018A      MOVW	R16,R20
    00169 940E 05A9 CALL	_strlen
    0016B 2EC0      MOV	R12,R16
    0016C 24AA      CLR	R10
    0016D C00A      RJMP	0x0178
    0016E 01FA      MOVW	R30,R20
    0016F 8100      LD	R16,Z
    00170 DF78      RCALL	_Write_Data_Byte
    00171 5F4F      SUBI	R20,0xFF
    00172 4F5F      SBCI	R21,0xFF
    00173 E001      LDI	R16,1
    00174 E010      LDI	R17,0
    00175 940E 009C CALL	_delay_nms
    00177 94A3      INC	R10
    00178 14AC      CP	R10,R12
    00179 F3A0      BCS	0x016E
    0017A 940C 060E JMP	pop_xgset303C
_main:
  z                    --> Y,+3
  keynum               --> R20
    0017C 9722      SBIW	R28,2
    0017D 94F8      BCLR	7
    0017E 2422      CLR	R2
    0017F BA24      OUT	0x14,R2
    00180 EF8F      LDI	R24,0xFF
    00181 BB85      OUT	0x15,R24
    00182 E082      LDI	R24,2
    00183 BB81      OUT	0x11,R24
    00184 EF8F      LDI	R24,0xFF
    00185 BB82      OUT	0x12,R24
    00186 DF33      RCALL	_LCDPort_Init
    00187 DF9E      RCALL	_LCD_Init
    00188 EC89      LDI	R24,0xC9
    00189 E090      LDI	R25,0
    0018A 8399      STD	Y+1,R25
    0018B 8388      ST	Y,R24
    0018C 2722      CLR	R18
    0018D 2700      CLR	R16
    0018E DFCC      RCALL	_Write_Data_String
    0018F DF1B      RCALL	_uart0_init
    00190 2422      CLR	R2
    00191 BE25      OUT	0x35,R2
    00192 BE2B      OUT	0x3B,R2
    00193 BE29      OUT	0x39,R2
    00194 9478      BSET	7
    00195 9020 0109 LDS	R2,ok
    00197 2022      TST	R2
    00198 F3E1      BEQ	0x0195
    00199 C231      RJMP	0x03CB
    0019A DF6E      RCALL	_ScanKey
    0019B 2F40      MOV	R20,R16
    0019C 3F0F      CPI	R16,0xFF
    0019D F409      BNE	0x019F
    0019E C09B      RJMP	0x023A
    0019F 3001      CPI	R16,1
    001A0 F009      BEQ	0x01A2
    001A1 C04E      RJMP	0x01F0
    001A2 E503      LDI	R16,0x53
    001A3 DF12      RCALL	_send_data
    001A4 9100 0111 LDS	R16,jianshu_jilu
    001A6 5D00      SUBI	R16,0xD0
    001A7 DF0E      RCALL	_send_data
    001A8 9100 0112 LDS	R16,jianshu_jilu+1
    001AA 5D00      SUBI	R16,0xD0
    001AB DF0A      RCALL	_send_data
    001AC 9100 0113 LDS	R16,jianshu_jilu+2
    001AE 5D00      SUBI	R16,0xD0
    001AF DF06      RCALL	_send_data
    001B0 9100 0114 LDS	R16,jianshu_jilu+3
    001B2 5D00      SUBI	R16,0xD0
    001B3 DF02      RCALL	_send_data
    001B4 9100 0115 LDS	R16,jianshu_jilu+4
    001B6 5D00      SUBI	R16,0xD0
    001B7 DEFE      RCALL	_send_data
    001B8 9100 0116 LDS	R16,jianshu_jilu+5
    001BA 5D00      SUBI	R16,0xD0
    001BB DEFA      RCALL	_send_data
    001BC 9100 0117 LDS	R16,jianshu_jilu+6
    001BE 5D00      SUBI	R16,0xD0
    001BF DEF6      RCALL	_send_data
    001C0 9100 0118 LDS	R16,jianshu_jilu+7
    001C2 5D00      SUBI	R16,0xD0
    001C3 DEF2      RCALL	_send_data
    001C4 9100 0119 LDS	R16,jianshu_jilu+8
    001C6 5D00      SUBI	R16,0xD0
    001C7 DEEE      RCALL	_send_data
    001C8 9100 011A LDS	R16,jianshu_jilu+9
    001CA 5D00      SUBI	R16,0xD0
    001CB DEEA      RCALL	_send_data
    001CC 9100 011B LDS	R16,jianshu_jilu+10
    001CE 5D00      SUBI	R16,0xD0
    001CF DEE6      RCALL	_send_data
    001D0 9100 011C LDS	R16,jianshu_jilu+11
    001D2 5D00      SUBI	R16,0xD0
    001D3 DEE2      RCALL	_send_data
    001D4 9100 011D LDS	R16,jianshu_jilu+12
    001D6 5D00      SUBI	R16,0xD0
    001D7 DEDE      RCALL	_send_data
    001D8 9100 011E LDS	R16,jianshu_jilu+13
    001DA 5D00      SUBI	R16,0xD0
    001DB DEDA      RCALL	_send_data
    001DC 9100 011F LDS	R16,jianshu_jilu+14
    001DE 5D00      SUBI	R16,0xD0
    001DF DED6      RCALL	_send_data
    001E0 9100 0120 LDS	R16,jianshu_jilu+15
    001E2 5D00      SUBI	R16,0xD0
    001E3 DED2      RCALL	_send_data
    001E4 9100 0121 LDS	R16,jianshu_jilu+16
    001E6 5D00      SUBI	R16,0xD0
    001E7 DECE      RCALL	_send_data
    001E8 9100 0122 LDS	R16,jianshu_jilu+17
    001EA 5D00      SUBI	R16,0xD0
    001EB DECA      RCALL	_send_data
    001EC E00D      LDI	R16,0xD
    001ED DEC8      RCALL	_send_data
    001EE E00A      LDI	R16,0xA
    001EF DEC6      RCALL	_send_data
    001F0 3042      CPI	R20,2
    001F1 F451      BNE	0x01FC
    001F2 9180 010A LDS	R24,xuhao
    001F4 5F8F      SUBI	R24,0xFF
    001F5 9380 010A STS	xuhao,R24
    001F7 3086      CPI	R24,6
    001F8 F018      BCS	0x01FC
    001F9 2422      CLR	R2
    001FA 9220 010A STS	xuhao,R2
    001FC 3043      CPI	R20,3
    001FD F451      BNE	0x0208
    001FE 9180 00D3 LDS	R24,num
    00200 5F8F      SUBI	R24,0xFF
    00201 9380 00D3 STS	num,R24
    00203 3083      CPI	R24,3
    00204 F018      BCS	0x0208
    00205 2422      CLR	R2
    00206 9220 00D3 STS	num,R2
    00208 3044      CPI	R20,4
    00209 F009      BEQ	0x020B
    0020A C02F      RJMP	0x023A
    0020B 9110 00D3 LDS	R17,num
    0020D E006      LDI	R16,6
    0020E 0301      MULSU	R16,R17
    0020F 0110      MOVW	R2,R0
    00210 E181      LDI	R24,0x11
    00211 E091      LDI	R25,1
    00212 0E28      ADD	R2,R24
    00213 1E39      ADC	R3,R25
    00214 9040 010A LDS	R4,xuhao
    00216 2455      CLR	R5
    00217 0C42      ADD	R4,R2
    00218 1C53      ADC	R5,R3
    00219 01F2      MOVW	R30,R4
    0021A 8180      LD	R24,Z
    0021B 5F8F      SUBI	R24,0xFF
    0021C 8380      ST	Z,R24
    0021D 9110 00D3 LDS	R17,num
    0021F 0301      MULSU	R16,R17
    00220 0110      MOVW	R2,R0
    00221 E181      LDI	R24,0x11
    00222 E091      LDI	R25,1
    00223 0E28      ADD	R2,R24
    00224 1E39      ADC	R3,R25
    00225 91E0 010A LDS	R30,xuhao
    00227 27FF      CLR	R31
    00228 0DE2      ADD	R30,R2
    00229 1DF3      ADC	R31,R3
    0022A 8180      LD	R24,Z
    0022B 3089      CPI	R24,0x9
    0022C F068      BCS	0x023A
    0022D 0301      MULSU	R16,R17
    0022E 0110      MOVW	R2,R0
    0022F E181      LDI	R24,0x11
    00230 E091      LDI	R25,1
    00231 0E28      ADD	R2,R24
    00232 1E39      ADC	R3,R25
    00233 91E0 010A LDS	R30,xuhao
    00235 27FF      CLR	R31
    00236 0DE2      ADD	R30,R2
    00237 1DF3      ADC	R31,R3
    00238 2422      CLR	R2
    00239 8220      ST	Z,R2
    0023A 9180 0109 LDS	R24,ok
    0023C 3081      CPI	R24,1
    0023D F009      BEQ	0x023F
    0023E C0D1      RJMP	0x0310
    0023F 2422      CLR	R2
    00240 9220 0109 STS	ok,R2
    00242 DEE3      RCALL	_LCD_Init
    00243 E01A      LDI	R17,0xA
    00244 9100 0060 LDS	R16,wupin
    00246 940E 05D3 CALL	div8u
    00248 2F80      MOV	R24,R16
    00249 5D80      SUBI	R24,0xD0
    0024A 9380 0068 STS	jiaxianshi+2,R24
    0024C E01A      LDI	R17,0xA
    0024D 9100 0060 LDS	R16,wupin
    0024F 940E 05D1 CALL	mod8u
    00251 2F80      MOV	R24,R16
    00252 5D80      SUBI	R24,0xD0
    00253 9380 0069 STS	jiaxianshi+3,R24
    00255 E68B      LDI	R24,0x6B
    00256 E090      LDI	R25,0
    00257 8399      STD	Y+1,R25
    00258 8388      ST	Y,R24
    00259 2722      CLR	R18
    0025A 2700      CLR	R16
    0025B DEFF      RCALL	_Write_Data_String
    0025C E686      LDI	R24,0x66
    0025D E090      LDI	R25,0
    0025E 8399      STD	Y+1,R25
    0025F 8388      ST	Y,R24
    00260 2722      CLR	R18
    00261 E00A      LDI	R16,0xA
    00262 DEF8      RCALL	_Write_Data_String
    00263 E01A      LDI	R17,0xA
    00264 9100 0061 LDS	R16,wupin+1
    00266 940E 05D3 CALL	div8u
    00268 2F80      MOV	R24,R16
    00269 5D80      SUBI	R24,0xD0
    0026A 9380 0068 STS	jiaxianshi+2,R24
    0026C E01A      LDI	R17,0xA
    0026D 9100 0061 LDS	R16,wupin+1
    0026F 940E 05D1 CALL	mod8u
    00271 2F80      MOV	R24,R16
    00272 5D80      SUBI	R24,0xD0
    00273 9380 0069 STS	jiaxianshi+3,R24
    00275 E788      LDI	R24,0x78
    00276 E090      LDI	R25,0
    00277 8399      STD	Y+1,R25
    00278 8388      ST	Y,R24
    00279 E021      LDI	R18,1
    0027A 2700      CLR	R16
    0027B DEDF      RCALL	_Write_Data_String
    0027C E686      LDI	R24,0x66
    0027D E090      LDI	R25,0
    0027E 8399      STD	Y+1,R25
    0027F 8388      ST	Y,R24
    00280 E021      LDI	R18,1
    00281 E00A      LDI	R16,0xA
    00282 DED8      RCALL	_Write_Data_String
    00283 ED00      LDI	R16,0xD0
    00284 E017      LDI	R17,7
    00285 940E 009C CALL	_delay_nms
    00287 E01A      LDI	R17,0xA
    00288 9100 0062 LDS	R16,wupin+2
    0028A 940E 05D3 CALL	div8u
    0028C 2F80      MOV	R24,R16
    0028D 5D80      SUBI	R24,0xD0
    0028E 9380 0068 STS	jiaxianshi+2,R24
    00290 E01A      LDI	R17,0xA
    00291 9100 0062 LDS	R16,wupin+2
    00293 940E 05D1 CALL	mod8u
    00295 2F80      MOV	R24,R16
    00296 5D80      SUBI	R24,0xD0
    00297 9380 0069 STS	jiaxianshi+3,R24
    00299 E885      LDI	R24,0x85
    0029A E090      LDI	R25,0
    0029B 8399      STD	Y+1,R25
    0029C 8388      ST	Y,R24
    0029D 2722      CLR	R18
    0029E 2700      CLR	R16
    0029F DEBB      RCALL	_Write_Data_String
    002A0 E686      LDI	R24,0x66
    002A1 E090      LDI	R25,0
    002A2 8399      STD	Y+1,R25
    002A3 8388      ST	Y,R24
    002A4 2722      CLR	R18
    002A5 E00A      LDI	R16,0xA
    002A6 DEB4      RCALL	_Write_Data_String
    002A7 E01A      LDI	R17,0xA
    002A8 9100 0063 LDS	R16,wupin+3
    002AA 940E 05D3 CALL	div8u
    002AC 2F80      MOV	R24,R16
    002AD 5D80      SUBI	R24,0xD0
    002AE 9380 0068 STS	jiaxianshi+2,R24
    002B0 E01A      LDI	R17,0xA
    002B1 9100 0063 LDS	R16,wupin+3
    002B3 940E 05D1 CALL	mod8u
    002B5 2F80      MOV	R24,R16
    002B6 5D80      SUBI	R24,0xD0
    002B7 9380 0069 STS	jiaxianshi+3,R24
    002B9 E982      LDI	R24,0x92
    002BA E090      LDI	R25,0
    002BB 8399      STD	Y+1,R25
    002BC 8388      ST	Y,R24
    002BD E021      LDI	R18,1
    002BE 2700      CLR	R16
    002BF DE9B      RCALL	_Write_Data_String
    002C0 E686      LDI	R24,0x66
    002C1 E090      LDI	R25,0
    002C2 8399      STD	Y+1,R25
    002C3 8388      ST	Y,R24
    002C4 E021      LDI	R18,1
    002C5 E00A      LDI	R16,0xA
    002C6 DE94      RCALL	_Write_Data_String
    002C7 ED00      LDI	R16,0xD0
    002C8 E017      LDI	R17,7
    002C9 940E 009C CALL	_delay_nms
    002CB E01A      LDI	R17,0xA
    002CC 9100 0064 LDS	R16,wupin+4
    002CE 940E 05D3 CALL	div8u
    002D0 2F80      MOV	R24,R16
    002D1 5D80      SUBI	R24,0xD0
    002D2 9380 0068 STS	jiaxianshi+2,R24
    002D4 E01A      LDI	R17,0xA
    002D5 9100 0064 LDS	R16,wupin+4
    002D7 940E 05D1 CALL	mod8u
    002D9 2F80      MOV	R24,R16
    002DA 5D80      SUBI	R24,0xD0
    002DB 9380 0069 STS	jiaxianshi+3,R24
    002DD E98F      LDI	R24,0x9F
    002DE E090      LDI	R25,0
    002DF 8399      STD	Y+1,R25
    002E0 8388      ST	Y,R24
    002E1 2722      CLR	R18
    002E2 2700      CLR	R16
    002E3 DE77      RCALL	_Write_Data_String
    002E4 E686      LDI	R24,0x66
    002E5 E090      LDI	R25,0
    002E6 8399      STD	Y+1,R25
    002E7 8388      ST	Y,R24
    002E8 2722      CLR	R18
    002E9 E00A      LDI	R16,0xA
    002EA DE70      RCALL	_Write_Data_String
    002EB E01A      LDI	R17,0xA
    002EC 9100 0065 LDS	R16,wupin+5
    002EE 940E 05D3 CALL	div8u
    002F0 2F80      MOV	R24,R16
    002F1 5D80      SUBI	R24,0xD0
    002F2 9380 0068 STS	jiaxianshi+2,R24
    002F4 E01A      LDI	R17,0xA
    002F5 9100 0065 LDS	R16,wupin+5
    002F7 940E 05D1 CALL	mod8u
    002F9 2F80      MOV	R24,R16
    002FA 5D80      SUBI	R24,0xD0
    002FB 9380 0069 STS	jiaxianshi+3,R24
    002FD EA8C      LDI	R24,0xAC
    002FE E090      LDI	R25,0
    002FF 8399      STD	Y+1,R25
    00300 8388      ST	Y,R24
    00301 E021      LDI	R18,1
    00302 2700      CLR	R16
    00303 DE57      RCALL	_Write_Data_String
    00304 E686      LDI	R24,0x66
    00305 E090      LDI	R25,0
    00306 8399      STD	Y+1,R25
    00307 8388      ST	Y,R24
    00308 E021      LDI	R18,1
    00309 E00A      LDI	R16,0xA
    0030A DE50      RCALL	_Write_Data_String
    0030B ED00      LDI	R16,0xD0
    0030C E017      LDI	R17,7
    0030D 940E 009C CALL	_delay_nms
    0030F DE16      RCALL	_LCD_Init
    00310 9180 0109 LDS	R24,ok
    00312 3082      CPI	R24,2
    00313 F009      BEQ	0x0315
    00314 C060      RJMP	0x0375
    00315 2422      CLR	R2
    00316 9220 0109 STS	ok,R2
    00318 DE0D      RCALL	_LCD_Init
    00319 EC80      LDI	R24,0xC0
    0031A E090      LDI	R25,0
    0031B 8399      STD	Y+1,R25
    0031C 8388      ST	Y,R24
    0031D 2722      CLR	R18
    0031E 2700      CLR	R16
    0031F DE3B      RCALL	_Write_Data_String
    00320 E08B      LDI	R24,0xB
    00321 E091      LDI	R25,1
    00322 91E0 00D3 LDS	R30,num
    00324 27FF      CLR	R31
    00325 0FEE      LSL	R30
    00326 1FFF      ROL	R31
    00327 0FE8      ADD	R30,R24
    00328 1FF9      ADC	R31,R25
    00329 8100      LD	R16,Z
    0032A 8111      LDD	R17,Z+1
    0032B EE28      LDI	R18,0xE8
    0032C E033      LDI	R19,3
    0032D 940E 05B7 CALL	div16u
    0032F 5D00      SUBI	R16,0xD0
    00330 4F1F      SBCI	R17,0xFF
    00331 DDB7      RCALL	_Write_Data_Byte
    00332 E08B      LDI	R24,0xB
    00333 E091      LDI	R25,1
    00334 91E0 00D3 LDS	R30,num
    00336 27FF      CLR	R31
    00337 0FEE      LSL	R30
    00338 1FFF      ROL	R31
    00339 0FE8      ADD	R30,R24
    0033A 1FF9      ADC	R31,R25
    0033B 8100      LD	R16,Z
    0033C 8111      LDD	R17,Z+1
    0033D E624      LDI	R18,0x64
    0033E E030      LDI	R19,0
    0033F 940E 05B7 CALL	div16u
    00341 E02A      LDI	R18,0xA
    00342 E030      LDI	R19,0
    00343 940E 05B5 CALL	mod16u
    00345 5D00      SUBI	R16,0xD0
    00346 4F1F      SBCI	R17,0xFF
    00347 DDA1      RCALL	_Write_Data_Byte
    00348 E08B      LDI	R24,0xB
    00349 E091      LDI	R25,1
    0034A 91E0 00D3 LDS	R30,num
    0034C 27FF      CLR	R31
    0034D 0FEE      LSL	R30
    0034E 1FFF      ROL	R31
    0034F 0FE8      ADD	R30,R24
    00350 1FF9      ADC	R31,R25
    00351 8100      LD	R16,Z
    00352 8111      LDD	R17,Z+1
    00353 E02A      LDI	R18,0xA
    00354 E030      LDI	R19,0
    00355 940E 05B7 CALL	div16u
    00357 E02A      LDI	R18,0xA
    00358 E030      LDI	R19,0
    00359 940E 05B5 CALL	mod16u
    0035B 5D00      SUBI	R16,0xD0
    0035C 4F1F      SBCI	R17,0xFF
    0035D DD8B      RCALL	_Write_Data_Byte
    0035E E08B      LDI	R24,0xB
    0035F E091      LDI	R25,1
    00360 91E0 00D3 LDS	R30,num
    00362 27FF      CLR	R31
    00363 0FEE      LSL	R30
    00364 1FFF      ROL	R31
    00365 0FE8      ADD	R30,R24
    00366 1FF9      ADC	R31,R25
    00367 8100      LD	R16,Z
    00368 8111      LDD	R17,Z+1
    00369 E02A      LDI	R18,0xA
    0036A E030      LDI	R19,0
    0036B 940E 05B5 CALL	mod16u
    0036D 5D00      SUBI	R16,0xD0
    0036E 4F1F      SBCI	R17,0xFF
    0036F DD79      RCALL	_Write_Data_Byte
    00370 EA00      LDI	R16,0xA0
    00371 E01F      LDI	R17,0xF
    00372 940E 009C CALL	_delay_nms
    00374 DDB1      RCALL	_LCD_Init
    00375 E680      LDI	R24,0x60
    00376 E090      LDI	R25,0
    00377 91E0 010A LDS	R30,xuhao
    00379 27FF      CLR	R31
    0037A 0FE8      ADD	R30,R24
    0037B 1FF9      ADC	R31,R25
    0037C 8100      LD	R16,Z
    0037D E01A      LDI	R17,0xA
    0037E 940E 05D3 CALL	div8u
    00380 2F80      MOV	R24,R16
    00381 5D80      SUBI	R24,0xD0
    00382 9380 0068 STS	jiaxianshi+2,R24
    00384 E680      LDI	R24,0x60
    00385 E090      LDI	R25,0
    00386 91E0 010A LDS	R30,xuhao
    00388 27FF      CLR	R31
    00389 0FE8      ADD	R30,R24
    0038A 1FF9      ADC	R31,R25
    0038B 8100      LD	R16,Z
    0038C E01A      LDI	R17,0xA
    0038D 940E 05D1 CALL	mod8u
    0038F 2F80      MOV	R24,R16
    00390 5D80      SUBI	R24,0xD0
    00391 9380 0069 STS	jiaxianshi+3,R24
    00393 9110 010A LDS	R17,xuhao
    00395 E00D      LDI	R16,0xD
    00396 0301      MULSU	R16,R17
    00397 0110      MOVW	R2,R0
    00398 E68B      LDI	R24,0x6B
    00399 E090      LDI	R25,0
    0039A 0E28      ADD	R2,R24
    0039B 1E39      ADC	R3,R25
    0039C 8239      STD	Y+1,R3
    0039D 8228      ST	Y,R2
    0039E 2722      CLR	R18
    0039F 2700      CLR	R16
    003A0 DDBA      RCALL	_Write_Data_String
    003A1 E686      LDI	R24,0x66
    003A2 E090      LDI	R25,0
    003A3 8399      STD	Y+1,R25
    003A4 8388      ST	Y,R24
    003A5 2722      CLR	R18
    003A6 E00C      LDI	R16,0xC
    003A7 DDB3      RCALL	_Write_Data_String
    003A8 EB8C      LDI	R24,0xBC
    003A9 E090      LDI	R25,0
    003AA 8399      STD	Y+1,R25
    003AB 8388      ST	Y,R24
    003AC E021      LDI	R18,1
    003AD 2700      CLR	R16
    003AE DDAC      RCALL	_Write_Data_String
    003AF 9100 00D3 LDS	R16,num
    003B1 5C0F      SUBI	R16,0xCF
    003B2 DD36      RCALL	_Write_Data_Byte
    003B3 EB89      LDI	R24,0xB9
    003B4 E090      LDI	R25,0
    003B5 8399      STD	Y+1,R25
    003B6 8388      ST	Y,R24
    003B7 E021      LDI	R18,1
    003B8 E00D      LDI	R16,0xD
    003B9 DDA1      RCALL	_Write_Data_String
    003BA 9110 00D3 LDS	R17,num
    003BC E006      LDI	R16,6
    003BD 0301      MULSU	R16,R17
    003BE 0110      MOVW	R2,R0
    003BF E181      LDI	R24,0x11
    003C0 E091      LDI	R25,1
    003C1 0E28      ADD	R2,R24
    003C2 1E39      ADC	R3,R25
    003C3 91E0 010A LDS	R30,xuhao
    003C5 27FF      CLR	R31
    003C6 0DE2      ADD	R30,R2
    003C7 1DF3      ADC	R31,R3
    003C8 8100      LD	R16,Z
    003C9 5D00      SUBI	R16,0xD0
    003CA DD1E      RCALL	_Write_Data_Byte
    003CB CDCE      RJMP	0x019A
    003CC 9622      ADIW	R28,2
    003CD 9508      RET
_uart0_rx_isr:
  i                    --> Y,+1
  temp                 --> R20
    003CE 920A      ST	-Y,R0
    003CF 921A      ST	-Y,R1
    003D0 922A      ST	-Y,R2
    003D1 923A      ST	-Y,R3
    003D2 924A      ST	-Y,R4
    003D3 925A      ST	-Y,R5
    003D4 930A      ST	-Y,R16
    003D5 931A      ST	-Y,R17
    003D6 932A      ST	-Y,R18
    003D7 933A      ST	-Y,R19
    003D8 938A      ST	-Y,R24
    003D9 939A      ST	-Y,R25
    003DA 93EA      ST	-Y,R30
    003DB 93FA      ST	-Y,R31
    003DC B60F      IN	R0,0x3F
    003DD 920A      ST	-Y,R0
    003DE 934A      ST	-Y,R20
    003DF 9020 00D6 LDS	R2,count
    003E1 2433      CLR	R3
    003E2 2D82      MOV	R24,R2
    003E3 5F8F      SUBI	R24,0xFF
    003E4 9380 00D6 STS	count,R24
    003E6 ED87      LDI	R24,0xD7
    003E7 E090      LDI	R25,0
    003E8 2DE2      MOV	R30,R2
    003E9 27FF      CLR	R31
    003EA 0FE8      ADD	R30,R24
    003EB 1FF9      ADC	R31,R25
    003EC B02C      IN	R2,0x0C
    003ED 8220      ST	Z,R2
    003EE 9020 00D6 LDS	R2,count
    003F0 ED85      LDI	R24,0xD5
    003F1 E090      LDI	R25,0
    003F2 2DE2      MOV	R30,R2
    003F3 27FF      CLR	R31
    003F4 0FE8      ADD	R30,R24
    003F5 1FF9      ADC	R31,R25
    003F6 8180      LD	R24,Z
    003F7 308D      CPI	R24,0xD
    003F8 F009      BEQ	0x03FA
    003F9 C19D      RJMP	0x0597
    003FA ED86      LDI	R24,0xD6
    003FB E090      LDI	R25,0
    003FC 2DE2      MOV	R30,R2
    003FD 27FF      CLR	R31
    003FE 0FE8      ADD	R30,R24
    003FF 1FF9      ADC	R31,R25
    00400 8180      LD	R24,Z
    00401 308A      CPI	R24,0xA
    00402 F009      BEQ	0x0404
    00403 C193      RJMP	0x0597
    00404 EC82      LDI	R24,0xC2
    00405 E090      LDI	R25,0
    00406 2DE2      MOV	R30,R2
    00407 27FF      CLR	R31
    00408 0FE8      ADD	R30,R24
    00409 1FF9      ADC	R31,R25
    0040A 8180      LD	R24,Z
    0040B 3583      CPI	R24,0x53
    0040C F009      BEQ	0x040E
    0040D C088      RJMP	0x0496
    0040E EC84      LDI	R24,0xC4
    0040F E090      LDI	R25,0
    00410 2DE2      MOV	R30,R2
    00411 27FF      CLR	R31
    00412 0FE8      ADD	R30,R24
    00413 1FF9      ADC	R31,R25
    00414 8140      LD	R20,Z
    00415 5340      SUBI	R20,0x30
    00416 E00A      LDI	R16,0xA
    00417 2F14      MOV	R17,R20
    00418 0301      MULSU	R16,R17
    00419 2D40      MOV	R20,R0
    0041A EC85      LDI	R24,0xC5
    0041B E090      LDI	R25,0
    0041C 2DE2      MOV	R30,R2
    0041D 27FF      CLR	R31
    0041E 0FE8      ADD	R30,R24
    0041F 1FF9      ADC	R31,R25
    00420 8180      LD	R24,Z
    00421 5380      SUBI	R24,0x30
    00422 0F48      ADD	R20,R24
    00423 9340 0060 STS	wupin,R20
    00425 EC87      LDI	R24,0xC7
    00426 E090      LDI	R25,0
    00427 2DE2      MOV	R30,R2
    00428 27FF      CLR	R31
    00429 0FE8      ADD	R30,R24
    0042A 1FF9      ADC	R31,R25
    0042B 8140      LD	R20,Z
    0042C 5340      SUBI	R20,0x30
    0042D 2F14      MOV	R17,R20
    0042E 0301      MULSU	R16,R17
    0042F 2D40      MOV	R20,R0
    00430 EC88      LDI	R24,0xC8
    00431 E090      LDI	R25,0
    00432 2DE2      MOV	R30,R2
    00433 27FF      CLR	R31
    00434 0FE8      ADD	R30,R24
    00435 1FF9      ADC	R31,R25
    00436 8180      LD	R24,Z
    00437 5380      SUBI	R24,0x30
    00438 0F48      ADD	R20,R24
    00439 9340 0061 STS	wupin+1,R20
    0043B EC8A      LDI	R24,0xCA
    0043C E090      LDI	R25,0
    0043D 2DE2      MOV	R30,R2
    0043E 27FF      CLR	R31
    0043F 0FE8      ADD	R30,R24
    00440 1FF9      ADC	R31,R25
    00441 8140      LD	R20,Z
    00442 5340      SUBI	R20,0x30
    00443 2F14      MOV	R17,R20
    00444 0301      MULSU	R16,R17
    00445 2D40      MOV	R20,R0
    00446 EC8B      LDI	R24,0xCB
    00447 E090      LDI	R25,0
    00448 2DE2      MOV	R30,R2
    00449 27FF      CLR	R31
    0044A 0FE8      ADD	R30,R24
    0044B 1FF9      ADC	R31,R25
    0044C 8180      LD	R24,Z
    0044D 5380      SUBI	R24,0x30
    0044E 0F48      ADD	R20,R24
    0044F 9340 0062 STS	wupin+2,R20
    00451 EC8D      LDI	R24,0xCD
    00452 E090      LDI	R25,0
    00453 2DE2      MOV	R30,R2
    00454 27FF      CLR	R31
    00455 0FE8      ADD	R30,R24
    00456 1FF9      ADC	R31,R25
    00457 8140      LD	R20,Z
    00458 5340      SUBI	R20,0x30
    00459 2F14      MOV	R17,R20
    0045A 0301      MULSU	R16,R17
    0045B 2D40      MOV	R20,R0
    0045C EC8E      LDI	R24,0xCE
    0045D E090      LDI	R25,0
    0045E 2DE2      MOV	R30,R2
    0045F 27FF      CLR	R31
    00460 0FE8      ADD	R30,R24
    00461 1FF9      ADC	R31,R25
    00462 8180      LD	R24,Z
    00463 5380      SUBI	R24,0x30
    00464 0F48      ADD	R20,R24
    00465 9340 0063 STS	wupin+3,R20
    00467 ED80      LDI	R24,0xD0
    00468 E090      LDI	R25,0
    00469 2DE2      MOV	R30,R2
    0046A 27FF      CLR	R31
    0046B 0FE8      ADD	R30,R24
    0046C 1FF9      ADC	R31,R25
    0046D 8140      LD	R20,Z
    0046E 5340      SUBI	R20,0x30
    0046F 2F14      MOV	R17,R20
    00470 0301      MULSU	R16,R17
    00471 2D40      MOV	R20,R0
    00472 ED81      LDI	R24,0xD1
    00473 E090      LDI	R25,0
    00474 2DE2      MOV	R30,R2
    00475 27FF      CLR	R31
    00476 0FE8      ADD	R30,R24
    00477 1FF9      ADC	R31,R25
    00478 8180      LD	R24,Z
    00479 5380      SUBI	R24,0x30
    0047A 0F48      ADD	R20,R24
    0047B 9340 0064 STS	wupin+4,R20
    0047D ED83      LDI	R24,0xD3
    0047E E090      LDI	R25,0
    0047F 2DE2      MOV	R30,R2
    00480 27FF      CLR	R31
    00481 0FE8      ADD	R30,R24
    00482 1FF9      ADC	R31,R25
    00483 8140      LD	R20,Z
    00484 5340      SUBI	R20,0x30
    00485 2F14      MOV	R17,R20
    00486 0301      MULSU	R16,R17
    00487 2D40      MOV	R20,R0
    00488 ED84      LDI	R24,0xD4
    00489 E090      LDI	R25,0
    0048A 2DE2      MOV	R30,R2
    0048B 27FF      CLR	R31
    0048C 0FE8      ADD	R30,R24
    0048D 1FF9      ADC	R31,R25
    0048E 8180      LD	R24,Z
    0048F 5380      SUBI	R24,0x30
    00490 0F48      ADD	R20,R24
    00491 9340 0065 STS	wupin+5,R20
    00493 E081      LDI	R24,1
    00494 9380 0109 STS	ok,R24
    00496 EC88      LDI	R24,0xC8
    00497 E090      LDI	R25,0
    00498 91E0 00D6 LDS	R30,count
    0049A 27FF      CLR	R31
    0049B 0FE8      ADD	R30,R24
    0049C 1FF9      ADC	R31,R25
    0049D 8180      LD	R24,Z
    0049E 348A      CPI	R24,0x4A
    0049F F009      BEQ	0x04A1
    004A0 C0F3      RJMP	0x0594
    004A1 EC89      LDI	R24,0xC9
    004A2 E090      LDI	R25,0
    004A3 91E0 00D6 LDS	R30,count
    004A5 27FF      CLR	R31
    004A6 0FE8      ADD	R30,R24
    004A7 1FF9      ADC	R31,R25
    004A8 8140      LD	R20,Z
    004A9 5340      SUBI	R20,0x30
    004AA 2F24      MOV	R18,R20
    004AB 2733      CLR	R19
    004AC EE08      LDI	R16,0xE8
    004AD E013      LDI	R17,3
    004AE 940E 05E9 CALL	empy16s
    004B0 9310 010C STS	jiner_jilu+1,R17
    004B2 9300 010B STS	jiner_jilu,R16
    004B4 EC8A      LDI	R24,0xCA
    004B5 E090      LDI	R25,0
    004B6 91E0 00D6 LDS	R30,count
    004B8 27FF      CLR	R31
    004B9 0FE8      ADD	R30,R24
    004BA 1FF9      ADC	R31,R25
    004BB 8140      LD	R20,Z
    004BC 5340      SUBI	R20,0x30
    004BD E604      LDI	R16,0x64
    004BE 2F14      MOV	R17,R20
    004BF 0301      MULSU	R16,R17
    004C0 9020 010B LDS	R2,jiner_jilu
    004C2 9030 010C LDS	R3,jiner_jilu+1
    004C4 0C20      ADD	R2,R0
    004C5 1C31      ADC	R3,R1
    004C6 9230 010C STS	jiner_jilu+1,R3
    004C8 9220 010B STS	jiner_jilu,R2
    004CA EC8B      LDI	R24,0xCB
    004CB E090      LDI	R25,0
    004CC 91E0 00D6 LDS	R30,count
    004CE 27FF      CLR	R31
    004CF 0FE8      ADD	R30,R24
    004D0 1FF9      ADC	R31,R25
    004D1 8140      LD	R20,Z
    004D2 5340      SUBI	R20,0x30
    004D3 E00A      LDI	R16,0xA
    004D4 2F14      MOV	R17,R20
    004D5 0301      MULSU	R16,R17
    004D6 0C20      ADD	R2,R0
    004D7 1C31      ADC	R3,R1
    004D8 9230 010C STS	jiner_jilu+1,R3
    004DA 9220 010B STS	jiner_jilu,R2
    004DC EC8C      LDI	R24,0xCC
    004DD E090      LDI	R25,0
    004DE 91E0 00D6 LDS	R30,count
    004E0 27FF      CLR	R31
    004E1 0FE8      ADD	R30,R24
    004E2 1FF9      ADC	R31,R25
    004E3 8140      LD	R20,Z
    004E4 5340      SUBI	R20,0x30
    004E5 2E24      MOV	R2,R20
    004E6 2433      CLR	R3
    004E7 9040 010B LDS	R4,jiner_jilu
    004E9 9050 010C LDS	R5,jiner_jilu+1
    004EB 0C42      ADD	R4,R2
    004EC 1C53      ADC	R5,R3
    004ED 9250 010C STS	jiner_jilu+1,R5
    004EF 9240 010B STS	jiner_jilu,R4
    004F1 EC8D      LDI	R24,0xCD
    004F2 E090      LDI	R25,0
    004F3 91E0 00D6 LDS	R30,count
    004F5 27FF      CLR	R31
    004F6 0FE8      ADD	R30,R24
    004F7 1FF9      ADC	R31,R25
    004F8 8140      LD	R20,Z
    004F9 5340      SUBI	R20,0x30
    004FA 2F24      MOV	R18,R20
    004FB 2733      CLR	R19
    004FC EE08      LDI	R16,0xE8
    004FD E013      LDI	R17,3
    004FE 940E 05E9 CALL	empy16s
    00500 9310 010E STS	jiner_jilu+3,R17
    00502 9300 010D STS	jiner_jilu+2,R16
    00504 EC8E      LDI	R24,0xCE
    00505 E090      LDI	R25,0
    00506 91E0 00D6 LDS	R30,count
    00508 27FF      CLR	R31
    00509 0FE8      ADD	R30,R24
    0050A 1FF9      ADC	R31,R25
    0050B 8140      LD	R20,Z
    0050C 5340      SUBI	R20,0x30
    0050D E604      LDI	R16,0x64
    0050E 2F14      MOV	R17,R20
    0050F 0301      MULSU	R16,R17
    00510 9020 010D LDS	R2,jiner_jilu+2
    00512 9030 010E LDS	R3,jiner_jilu+3
    00514 0C20      ADD	R2,R0
    00515 1C31      ADC	R3,R1
    00516 9230 010E STS	jiner_jilu+3,R3
    00518 9220 010D STS	jiner_jilu+2,R2
    0051A EC8F      LDI	R24,0xCF
    0051B E090      LDI	R25,0
    0051C 91E0 00D6 LDS	R30,count
    0051E 27FF      CLR	R31
    0051F 0FE8      ADD	R30,R24
    00520 1FF9      ADC	R31,R25
    00521 8140      LD	R20,Z
    00522 5340      SUBI	R20,0x30
    00523 E00A      LDI	R16,0xA
    00524 2F14      MOV	R17,R20
    00525 0301      MULSU	R16,R17
    00526 0C20      ADD	R2,R0
    00527 1C31      ADC	R3,R1
    00528 9230 010E STS	jiner_jilu+3,R3
    0052A 9220 010D STS	jiner_jilu+2,R2
    0052C ED80      LDI	R24,0xD0
    0052D E090      LDI	R25,0
    0052E 91E0 00D6 LDS	R30,count
    00530 27FF      CLR	R31
    00531 0FE8      ADD	R30,R24
    00532 1FF9      ADC	R31,R25
    00533 8140      LD	R20,Z
    00534 5340      SUBI	R20,0x30
    00535 2E24      MOV	R2,R20
    00536 2433      CLR	R3
    00537 9040 010D LDS	R4,jiner_jilu+2
    00539 9050 010E LDS	R5,jiner_jilu+3
    0053B 0C42      ADD	R4,R2
    0053C 1C53      ADC	R5,R3
    0053D 9250 010E STS	jiner_jilu+3,R5
    0053F 9240 010D STS	jiner_jilu+2,R4
    00541 ED81      LDI	R24,0xD1
    00542 E090      LDI	R25,0
    00543 91E0 00D6 LDS	R30,count
    00545 27FF      CLR	R31
    00546 0FE8      ADD	R30,R24
    00547 1FF9      ADC	R31,R25
    00548 8140      LD	R20,Z
    00549 5340      SUBI	R20,0x30
    0054A 2F24      MOV	R18,R20
    0054B 2733      CLR	R19
    0054C EE08      LDI	R16,0xE8
    0054D E013      LDI	R17,3
    0054E 940E 05E9 CALL	empy16s
    00550 9310 0110 STS	jiner_jilu+5,R17
    00552 9300 010F STS	jiner_jilu+4,R16
    00554 ED82      LDI	R24,0xD2
    00555 E090      LDI	R25,0
    00556 91E0 00D6 LDS	R30,count
    00558 27FF      CLR	R31
    00559 0FE8      ADD	R30,R24
    0055A 1FF9      ADC	R31,R25
    0055B 8140      LD	R20,Z
    0055C 5340      SUBI	R20,0x30
    0055D E604      LDI	R16,0x64
    0055E 2F14      MOV	R17,R20
    0055F 0301      MULSU	R16,R17
    00560 9020 010F LDS	R2,jiner_jilu+4
    00562 9030 0110 LDS	R3,jiner_jilu+5
    00564 0C20      ADD	R2,R0
    00565 1C31      ADC	R3,R1
    00566 9230 0110 STS	jiner_jilu+5,R3
    00568 9220 010F STS	jiner_jilu+4,R2
    0056A ED83      LDI	R24,0xD3
    0056B E090      LDI	R25,0
    0056C 91E0 00D6 LDS	R30,count
    0056E 27FF      CLR	R31
    0056F 0FE8      ADD	R30,R24
    00570 1FF9      ADC	R31,R25
    00571 8140      LD	R20,Z
    00572 5340      SUBI	R20,0x30
    00573 E00A      LDI	R16,0xA
    00574 2F14      MOV	R17,R20
    00575 0301      MULSU	R16,R17
    00576 0C20      ADD	R2,R0
    00577 1C31      ADC	R3,R1
    00578 9230 0110 STS	jiner_jilu+5,R3
    0057A 9220 010F STS	jiner_jilu+4,R2
    0057C ED84      LDI	R24,0xD4
    0057D E090      LDI	R25,0
    0057E 91E0 00D6 LDS	R30,count
    00580 27FF      CLR	R31
    00581 0FE8      ADD	R30,R24
    00582 1FF9      ADC	R31,R25
    00583 8140      LD	R20,Z
    00584 5340      SUBI	R20,0x30
    00585 2E24      MOV	R2,R20
    00586 2433      CLR	R3
    00587 9040 010F LDS	R4,jiner_jilu+4
    00589 9050 0110 LDS	R5,jiner_jilu+5
    0058B 0C42      ADD	R4,R2
    0058C 1C53      ADC	R5,R3
    0058D 9250 0110 STS	jiner_jilu+5,R5
    0058F 9240 010F STS	jiner_jilu+4,R4
    00591 E082      LDI	R24,2
    00592 9380 0109 STS	ok,R24
    00594 2422      CLR	R2
    00595 9220 00D6 STS	count,R2
    00597 9149      LD	R20,Y+
    00598 9009      LD	R0,Y+
    00599 BE0F      OUT	0x3F,R0
    0059A 91F9      LD	R31,Y+
    0059B 91E9      LD	R30,Y+
    0059C 9199      LD	R25,Y+
    0059D 9189      LD	R24,Y+
    0059E 9139      LD	R19,Y+
    0059F 9129      LD	R18,Y+
    005A0 9119      LD	R17,Y+
    005A1 9109      LD	R16,Y+
    005A2 9059      LD	R5,Y+
    005A3 9049      LD	R4,Y+
    005A4 9039      LD	R3,Y+
    005A5 9029      LD	R2,Y+
    005A6 9019      LD	R1,Y+
    005A7 9009      LD	R0,Y+
    005A8 9518      RETI
_strlen:
    005A9 2FE0      MOV	R30,R16
    005AA 2FF1      MOV	R31,R17
    005AB 27AA      CLR	R26
    005AC 27BB      CLR	R27
    005AD 9001      LD	R0,Z+
    005AE 2000      TST	R0
    005AF F011      BEQ	0x05B2
    005B0 9611      ADIW	R26,1
    005B1 CFFB      RJMP	0x05AD
    005B2 2F0A      MOV	R16,R26
    005B3 2F1B      MOV	R17,R27
    005B4 9508      RET
mod16u:
    005B5 9468      BSET	6
    005B6 C001      RJMP	xdiv16u
div16u:
    005B7 94E8      BCLR	6
xdiv16u:
    005B8 92EA      ST	-Y,R14
    005B9 92FA      ST	-Y,R15
    005BA 938A      ST	-Y,R24
    005BB 24EE      CLR	R14
    005BC 24FF      CLR	R15
    005BD E180      LDI	R24,0x10
    005BE 0F00      LSL	R16
    005BF 1F11      ROL	R17
    005C0 1CEE      ROL	R14
    005C1 1CFF      ROL	R15
    005C2 16E2      CP	R14,R18
    005C3 06F3      CPC	R15,R19
    005C4 F018      BCS	0x05C8
    005C5 1AE2      SUB	R14,R18
    005C6 0AF3      SBC	R15,R19
    005C7 9503      INC	R16
    005C8 958A      DEC	R24
    005C9 F7A1      BNE	0x05BE
    005CA F416      BRTC	0x05CD
    005CB 2D0E      MOV	R16,R14
    005CC 2D1F      MOV	R17,R15
    005CD 9189      LD	R24,Y+
    005CE 90F9      LD	R15,Y+
    005CF 90E9      LD	R14,Y+
    005D0 9508      RET
mod8u:
    005D1 9468      BSET	6
    005D2 C001      RJMP	xdiv8u
div8u:
    005D3 94E8      BCLR	6
xdiv8u:
    005D4 932A      ST	-Y,R18
    005D5 92FA      ST	-Y,R15
    005D6 92EA      ST	-Y,R14
    005D7 24FF      CLR	R15
    005D8 24EE      CLR	R14
    005D9 E120      LDI	R18,0x10
    005DA 0F00      LSL	R16
    005DB 1CFF      ROL	R15
    005DC 1CEE      ROL	R14
    005DD 16E1      CP	R14,R17
    005DE F010      BCS	0x05E1
    005DF 1AE1      SUB	R14,R17
    005E0 9503      INC	R16
    005E1 952A      DEC	R18
    005E2 F7B9      BNE	0x05DA
    005E3 F40E      BRTC	0x05E5
    005E4 2D0E      MOV	R16,R14
    005E5 90E9      LD	R14,Y+
    005E6 90F9      LD	R15,Y+
    005E7 9129      LD	R18,Y+
    005E8 9508      RET
empy16s:
    005E9 920A      ST	-Y,R0
    005EA 921A      ST	-Y,R1
    005EB 938A      ST	-Y,R24
    005EC 939A      ST	-Y,R25
    005ED 9F02      MUL	R16,R18
    005EE 01C0      MOVW	R24,R0
    005EF 9F12      MUL	R17,R18
    005F0 0D90      ADD	R25,R0
    005F1 9F03      MUL	R16,R19
    005F2 0D90      ADD	R25,R0
    005F3 018C      MOVW	R16,R24
    005F4 9199      LD	R25,Y+
    005F5 9189      LD	R24,Y+
    005F6 9019      LD	R1,Y+
    005F7 9009      LD	R0,Y+
    005F8 9508      RET
push_xgsetF00C:
    005F9 937A      ST	-Y,R23
    005FA 936A      ST	-Y,R22
    005FB 935A      ST	-Y,R21
    005FC 934A      ST	-Y,R20
    005FD 92BA      ST	-Y,R11
    005FE 92AA      ST	-Y,R10
    005FF 9508      RET
pop_xgsetF00C:
    00600 90A9      LD	R10,Y+
    00601 90B9      LD	R11,Y+
    00602 9149      LD	R20,Y+
    00603 9159      LD	R21,Y+
    00604 9169      LD	R22,Y+
    00605 9179      LD	R23,Y+
    00606 9508      RET
push_xgset303C:
    00607 935A      ST	-Y,R21
    00608 934A      ST	-Y,R20
    00609 92DA      ST	-Y,R13
    0060A 92CA      ST	-Y,R12
    0060B 92BA      ST	-Y,R11
    0060C 92AA      ST	-Y,R10
    0060D 9508      RET
pop_xgset303C:
    0060E 90A9      LD	R10,Y+
    0060F 90B9      LD	R11,Y+
    00610 90C9      LD	R12,Y+
    00611 90D9      LD	R13,Y+
    00612 9149      LD	R20,Y+
    00613 9159      LD	R21,Y+
    00614 9508      RET
